; Function Attrs: nofree norecurse nosync nounwind memory(readwrite, inaccessiblemem: none) uwtable
define internal void @png_read_filter_row_avg(ptr nocapture noundef readonly %0, ptr nocapture noundef %1, ptr nocapture noundef readonly %2) #6 {
  %4 = getelementptr inbounds i8, ptr %0, i64 19
  %5 = load i8, ptr %4, align 1
  %6 = zext i8 %5 to i64
  %7 = add nuw nsw i64 %6, 7
  %8 = lshr i64 %7, 3
  %9 = getelementptr inbounds i8, ptr %0, i64 8
  %10 = load i64, ptr %9, align 8
  %11 = sub i64 %10, %8
  %.not = icmp eq i8 %5, 0
  br i1 %.not, label %.preheader, label %.lr.ph

.preheader:                                       ; preds = %.lr.ph, %3
  %.022.lcssa = phi ptr [ %2, %3 ], [ %14, %.lr.ph ]
  %.020.lcssa = phi ptr [ %1, %3 ], [ %17, %.lr.ph ]
  %.not35 = icmp eq i64 %10, %8
  br i1 %.not35, label %._crit_edge, label %.lr.ph34

.lr.ph34:                                         ; preds = %.preheader
  %12 = sub nsw i64 0, %8
  br label %19

.lr.ph:                                           ; preds = %3, %.lr.ph
  %.029 = phi i64 [ %18, %.lr.ph ], [ 0, %3 ]
  %.02028 = phi ptr [ %17, %.lr.ph ], [ %1, %3 ]
  %.02227 = phi ptr [ %14, %.lr.ph ], [ %2, %3 ]
  %13 = load i8, ptr %.02028, align 1
  %14 = getelementptr inbounds i8, ptr %.02227, i64 1
  %15 = load i8, ptr %.02227, align 1
  %16 = lshr i8 %15, 1
  %.narrow26 = add i8 %16, %13
  store i8 %.narrow26, ptr %.02028, align 1
  %17 = getelementptr inbounds i8, ptr %.02028, i64 1
  %18 = add nuw nsw i64 %.029, 1
  %exitcond.not = icmp eq i64 %18, %8
  br i1 %exitcond.not, label %.preheader, label %.lr.ph, !llvm.loop !87

19:                                               ; preds = %.lr.ph34, %19
  %.133 = phi i64 [ 0, %.lr.ph34 ], [ %30, %19 ]
  %.12132 = phi ptr [ %.020.lcssa, %.lr.ph34 ], [ %29, %19 ]
  %.12331 = phi ptr [ %.022.lcssa, %.lr.ph34 ], [ %21, %19 ]
  %20 = load i8, ptr %.12132, align 1
  %21 = getelementptr inbounds i8, ptr %.12331, i64 1
  %22 = load i8, ptr %.12331, align 1
  %23 = zext i8 %22 to i16
  %24 = getelementptr inbounds i8, ptr %.12132, i64 %12
  %25 = load i8, ptr %24, align 1
  %26 = zext i8 %25 to i16
  %27 = add nuw nsw i16 %26, %23
  %28 = lshr i16 %27, 1
  %.tr = trunc nuw i16 %28 to i8
  %.narrow = add i8 %20, %.tr
  store i8 %.narrow, ptr %.12132, align 1
  %29 = getelementptr inbounds i8, ptr %.12132, i64 1
  %30 = add nuw i64 %.133, 1
  %exitcond37.not = icmp eq i64 %30, %11
  br i1 %exitcond37.not, label %._crit_edge, label %19, !llvm.loop !88

._crit_edge:                                      ; preds = %19, %.preheader
  ret void
}